target datalayout = "e-m:e-p270:32:32-p271:32:32-p272:64:64-i64:64-i128:128-f80:128-n8:16:32:64-S128"
target triple = "x86_64-pc-linux-gnu"

%"class.llvm::FastMathFlags" = type { i32 }

; Function Attrs: mustprogress nounwind uwtable
define linkonce_odr hidden noundef zeroext i1 @_ZNK4llvm13FastMathFlags10approxFuncEv(ptr noundef nonnull align 4 dereferenceable(4) %0) #0 comdat align 2 {
  %2 = alloca ptr, align 8
  store ptr %0, ptr %2, align 8
  %3 = load ptr, ptr %2, align 8
  %4 = getelementptr inbounds nuw %"class.llvm::FastMathFlags", ptr %3, i32 0, i32 0
  %5 = load i32, ptr %4, align 4
  %6 = and i32 %5, 64
  %7 = icmp ne i32 0, %6
  ret i1 %7
}

; Function Attrs: mustprogress nounwind uwtable
define linkonce_odr hidden noundef zeroext i1 @_ZNK4llvm13FastMathFlags13allowContractEv(ptr noundef nonnull align 4 dereferenceable(4) %0) #0 comdat align 2 {
  %2 = alloca ptr, align 8
  store ptr %0, ptr %2, align 8
  %3 = load ptr, ptr %2, align 8
  %4 = getelementptr inbounds nuw %"class.llvm::FastMathFlags", ptr %3, i32 0, i32 0
  %5 = load i32, ptr %4, align 4
  %6 = and i32 %5, 32
  %7 = icmp ne i32 0, %6
  ret i1 %7
}

; Function Attrs: mustprogress nounwind uwtable
define linkonce_odr hidden noundef zeroext i1 @_ZNK4llvm13FastMathFlags15allowReciprocalEv(ptr noundef nonnull align 4 dereferenceable(4) %0) #0 comdat align 2 {
  %2 = alloca ptr, align 8
  store ptr %0, ptr %2, align 8
  %3 = load ptr, ptr %2, align 8
  %4 = getelementptr inbounds nuw %"class.llvm::FastMathFlags", ptr %3, i32 0, i32 0
  %5 = load i32, ptr %4, align 4
  %6 = and i32 %5, 16
  %7 = icmp ne i32 0, %6
  ret i1 %7
}

; Function Attrs: mustprogress nounwind uwtable
define linkonce_odr hidden noundef zeroext i1 @_ZNK4llvm13FastMathFlags13noSignedZerosEv(ptr noundef nonnull align 4 dereferenceable(4) %0) #0 comdat align 2 {
  %2 = alloca ptr, align 8
  store ptr %0, ptr %2, align 8
  %3 = load ptr, ptr %2, align 8
  %4 = getelementptr inbounds nuw %"class.llvm::FastMathFlags", ptr %3, i32 0, i32 0
  %5 = load i32, ptr %4, align 4
  %6 = and i32 %5, 8
  %7 = icmp ne i32 0, %6
  ret i1 %7
}

; Function Attrs: mustprogress nounwind uwtable
define linkonce_odr hidden noundef zeroext i1 @_ZNK4llvm13FastMathFlags6noInfsEv(ptr noundef nonnull align 4 dereferenceable(4) %0) #0 comdat align 2 {
  %2 = alloca ptr, align 8
  store ptr %0, ptr %2, align 8
  %3 = load ptr, ptr %2, align 8
  %4 = getelementptr inbounds nuw %"class.llvm::FastMathFlags", ptr %3, i32 0, i32 0
  %5 = load i32, ptr %4, align 4
  %6 = and i32 %5, 4
  %7 = icmp ne i32 0, %6
  ret i1 %7
}

; Function Attrs: mustprogress nounwind uwtable
define linkonce_odr hidden noundef zeroext i1 @_ZNK4llvm13FastMathFlags6noNaNsEv(ptr noundef nonnull align 4 dereferenceable(4) %0) #0 comdat align 2 {
  %2 = alloca ptr, align 8
  store ptr %0, ptr %2, align 8
  %3 = load ptr, ptr %2, align 8
  %4 = getelementptr inbounds nuw %"class.llvm::FastMathFlags", ptr %3, i32 0, i32 0
  %5 = load i32, ptr %4, align 4
  %6 = and i32 %5, 2
  %7 = icmp ne i32 0, %6
  ret i1 %7
}

; Function Attrs: mustprogress nounwind uwtable
define linkonce_odr hidden noundef zeroext i1 @_ZNK4llvm13FastMathFlags12allowReassocEv(ptr noundef nonnull align 4 dereferenceable(4) %0) #0 comdat align 2 {
  %2 = alloca ptr, align 8
  store ptr %0, ptr %2, align 8
  %3 = load ptr, ptr %2, align 8
  %4 = getelementptr inbounds nuw %"class.llvm::FastMathFlags", ptr %3, i32 0, i32 0
  %5 = load i32, ptr %4, align 4
  %6 = and i32 %5, 1
  %7 = icmp ne i32 0, %6
  ret i1 %7
}

; Function Attrs: mustprogress nounwind uwtable
define dso_local void @_ZN4llvm19VPRecipeWithIRFlags15FastMathFlagsTyC2ERKNS_13FastMathFlagsE(ptr noundef nonnull align 1 dereferenceable(1) %0, ptr noundef nonnull align 4 dereferenceable(4) %1) unnamed_addr #0 align 2 {
  %3 = alloca ptr, align 8
  %4 = alloca ptr, align 8
  store ptr %0, ptr %3, align 8
  store ptr %1, ptr %4, align 8
  %5 = load ptr, ptr %3, align 8
  %6 = load ptr, ptr %4, align 8
  %7 = call noundef zeroext i1 @_ZNK4llvm13FastMathFlags12allowReassocEv(ptr noundef nonnull align 4 dereferenceable(4) %6)
  %8 = zext i1 %7 to i8
  %9 = load i8, ptr %5, align 1
  %10 = and i8 %8, 1
  %11 = and i8 %9, -2
  %12 = or i8 %11, %10
  store i8 %12, ptr %5, align 1
  %13 = load ptr, ptr %4, align 8
  %14 = call noundef zeroext i1 @_ZNK4llvm13FastMathFlags6noNaNsEv(ptr noundef nonnull align 4 dereferenceable(4) %13)
  %15 = zext i1 %14 to i8
  %16 = load i8, ptr %5, align 1
  %17 = and i8 %15, 1
  %18 = shl i8 %17, 1
  %19 = and i8 %16, -3
  %20 = or i8 %19, %18
  store i8 %20, ptr %5, align 1
  %21 = load ptr, ptr %4, align 8
  %22 = call noundef zeroext i1 @_ZNK4llvm13FastMathFlags6noInfsEv(ptr noundef nonnull align 4 dereferenceable(4) %21)
  %23 = zext i1 %22 to i8
  %24 = load i8, ptr %5, align 1
  %25 = and i8 %23, 1
  %26 = shl i8 %25, 2
  %27 = and i8 %24, -5
  %28 = or i8 %27, %26
  store i8 %28, ptr %5, align 1
  %29 = load ptr, ptr %4, align 8
  %30 = call noundef zeroext i1 @_ZNK4llvm13FastMathFlags13noSignedZerosEv(ptr noundef nonnull align 4 dereferenceable(4) %29)
  %31 = zext i1 %30 to i8
  %32 = load i8, ptr %5, align 1
  %33 = and i8 %31, 1
  %34 = shl i8 %33, 3
  %35 = and i8 %32, -9
  %36 = or i8 %35, %34
  store i8 %36, ptr %5, align 1
  %37 = load ptr, ptr %4, align 8
  %38 = call noundef zeroext i1 @_ZNK4llvm13FastMathFlags15allowReciprocalEv(ptr noundef nonnull align 4 dereferenceable(4) %37)
  %39 = zext i1 %38 to i8
  %40 = load i8, ptr %5, align 1
  %41 = and i8 %39, 1
  %42 = shl i8 %41, 4
  %43 = and i8 %40, -17
  %44 = or i8 %43, %42
  store i8 %44, ptr %5, align 1
  %45 = load ptr, ptr %4, align 8
  %46 = call noundef zeroext i1 @_ZNK4llvm13FastMathFlags13allowContractEv(ptr noundef nonnull align 4 dereferenceable(4) %45)
  %47 = zext i1 %46 to i8
  %48 = load i8, ptr %5, align 1
  %49 = and i8 %47, 1
  %50 = shl i8 %49, 5
  %51 = and i8 %48, -33
  %52 = or i8 %51, %50
  store i8 %52, ptr %5, align 1
  %53 = load ptr, ptr %4, align 8
  %54 = call noundef zeroext i1 @_ZNK4llvm13FastMathFlags10approxFuncEv(ptr noundef nonnull align 4 dereferenceable(4) %53)
  %55 = zext i1 %54 to i8
  %56 = load i8, ptr %5, align 1
  %57 = and i8 %55, 1
  %58 = shl i8 %57, 6
  %59 = and i8 %56, -65
  %60 = or i8 %59, %58
  store i8 %60, ptr %5, align 1
  ret void
}