; Function Attrs: mustprogress nofree norecurse nosync nounwind willreturn memory(argmem: readwrite) uwtable
define dso_local void @_ZN4llvm19VPRecipeWithIRFlags15FastMathFlagsTyC2ERKNS_13FastMathFlagsE(ptr nocapture noundef nonnull align 1 dereferenceable(1) %0, ptr nocapture noundef nonnull readonly align 4 dereferenceable(4) %1) unnamed_addr #8 align 2 {
  %3 = load i32, ptr %1, align 4
  %4 = trunc i32 %3 to i8
  %5 = and i8 %4, 1
  %6 = load i8, ptr %0, align 1
  %7 = and i8 %6, -2
  %8 = or disjoint i8 %7, %5
  store i8 %8, ptr %0, align 1
  %9 = load i32, ptr %1, align 4
  %10 = trunc i32 %9 to i8
  %11 = and i8 %10, 2
  %12 = and i8 %8, -3
  %13 = or disjoint i8 %11, %12
  store i8 %13, ptr %0, align 1
  %14 = load i32, ptr %1, align 4
  %15 = trunc i32 %14 to i8
  %16 = and i8 %15, 4
  %17 = and i8 %13, -5
  %18 = or disjoint i8 %17, %16
  store i8 %18, ptr %0, align 1
  %19 = load i32, ptr %1, align 4
  %20 = trunc i32 %19 to i8
  %21 = and i8 %20, 8
  %22 = and i8 %18, -9
  %23 = or disjoint i8 %22, %21
  store i8 %23, ptr %0, align 1
  %24 = load i32, ptr %1, align 4
  %25 = trunc i32 %24 to i8
  %26 = and i8 %25, 16
  %27 = and i8 %23, -17
  %28 = or disjoint i8 %27, %26
  store i8 %28, ptr %0, align 1
  %29 = load i32, ptr %1, align 4
  %30 = trunc i32 %29 to i8
  %31 = and i8 %30, 32
  %32 = and i8 %28, -33
  %33 = or disjoint i8 %32, %31
  store i8 %33, ptr %0, align 1
  %34 = load i32, ptr %1, align 4
  %35 = trunc i32 %34 to i8
  %36 = and i8 %35, 64
  %37 = and i8 %33, -65
  %38 = or disjoint i8 %37, %36
  store i8 %38, ptr %0, align 1
  ret void
}